; Function Attrs: mustprogress uwtable
define void @_ZN5boost9iostreams6detail10bzip2_base7do_initEbPFPvS3_iiEPFvS3_S3_ES3_(ptr nocapture noundef nonnull align 8 dereferenceable(17) %0, i1 noundef zeroext %1, ptr nocapture noundef readnone %2, ptr nocapture noundef readnone %3, ptr noundef %4) local_unnamed_addr #0 align 2 personality ptr @__gxx_personality_v0 {
  %6 = alloca %"class.std::bad_alloc", align 8
  %7 = alloca %"class.boost::iostreams::bzip2_error", align 8
  %8 = getelementptr inbounds nuw i8, ptr %0, i64 8
  %9 = load ptr, ptr %8, align 8, !tbaa !23
  %10 = getelementptr inbounds nuw i8, ptr %9, i64 56
  %11 = getelementptr inbounds nuw i8, ptr %9, i64 72
  tail call void @llvm.memset.p0.i64(ptr noundef nonnull align 8 dereferenceable(16) %10, i8 0, i64 16, i1 false)
  store ptr %4, ptr %11, align 8, !tbaa !35
  br i1 %1, label %12, label %17

12:                                               ; preds = %5
  %13 = load i32, ptr %0, align 8, !tbaa !36
  %14 = getelementptr inbounds nuw i8, ptr %0, i64 4
  %15 = load i32, ptr %14, align 4, !tbaa !37
  %16 = tail call i32 @BZ2_bzCompressInit(ptr noundef nonnull %9, i32 noundef %13, i32 noundef 0, i32 noundef %15)
  br label %21

17:                                               ; preds = %5
  %18 = load i8, ptr %0, align 8, !tbaa !36, !range !33, !noundef !34
  %19 = zext nneg i8 %18 to i32
  %20 = tail call i32 @BZ2_bzDecompressInit(ptr noundef nonnull %9, i32 noundef 0, i32 noundef %19)
  br label %21

21:                                               ; preds = %17, %12
  %22 = phi i32 [ %16, %12 ], [ %20, %17 ]
  switch i32 %22, label %27 [
    i32 0, label %_ZN5boost9iostreams11bzip2_error5checkEi.exit
    i32 1, label %_ZN5boost9iostreams11bzip2_error5checkEi.exit
    i32 2, label %_ZN5boost9iostreams11bzip2_error5checkEi.exit
    i32 3, label %_ZN5boost9iostreams11bzip2_error5checkEi.exit
    i32 4, label %_ZN5boost9iostreams11bzip2_error5checkEi.exit
    i32 -3, label %23
  ]

23:                                               ; preds = %21
  call void @llvm.lifetime.start.p0(i64 8, ptr nonnull %6) #21
  store ptr getelementptr inbounds inrange(-16, 24) (i8, ptr @_ZTVSt9bad_alloc, i64 16), ptr %6, align 8, !tbaa !9
  invoke void @_ZN5boost15throw_exceptionISt9bad_allocEEvRKT_(ptr noundef nonnull align 8 dereferenceable(8) %6) #23
          to label %24 unwind label %25

24:                                               ; preds = %23
  unreachable

25:                                               ; preds = %23
  %26 = landingpad { ptr, i32 }
          cleanup
  call void @_ZNSt9bad_allocD1Ev(ptr noundef nonnull align 8 dereferenceable(8) %6) #21
  call void @llvm.lifetime.end.p0(i64 8, ptr nonnull %6) #21
  br label %31

27:                                               ; preds = %21
  call void @llvm.lifetime.start.p0(i64 40, ptr nonnull %7) #21
  call void @_ZN5boost9iostreams11bzip2_errorC1Ei(ptr noundef nonnull align 8 dereferenceable(36) %7, i32 noundef %22)
  invoke void @_ZN5boost15throw_exceptionINS_9iostreams11bzip2_errorEEEvRKT_(ptr noundef nonnull align 8 dereferenceable(36) %7) #23
          to label %28 unwind label %29

28:                                               ; preds = %27
  unreachable

29:                                               ; preds = %27
  %30 = landingpad { ptr, i32 }
          cleanup
  call void @_ZNSt8ios_base7failureB5cxx11D2Ev(ptr noundef nonnull align 8 dereferenceable(36) %7) #21
  call void @llvm.lifetime.end.p0(i64 40, ptr nonnull %7) #21
  br label %31

31:                                               ; preds = %29, %25
  %.pn.i = phi { ptr, i32 } [ %30, %29 ], [ %26, %25 ]
  resume { ptr, i32 } %.pn.i

_ZN5boost9iostreams11bzip2_error5checkEi.exit:    ; preds = %21, %21, %21, %21, %21
  %32 = getelementptr inbounds nuw i8, ptr %0, i64 16
  store i8 1, ptr %32, align 8, !tbaa !27
  ret void
}